target datalayout = "e-m:e-p270:32:32-p271:32:32-p272:64:64-i64:64-i128:128-f80:128-n8:16:32:64-S128"
target triple = "x86_64-pc-linux-gnu"

%"class.rocksdb::cassandra::RowValue" = type { i32, i64, %"class.std::vector", i64 }
%"class.std::vector" = type { %"struct.std::_Vector_base" }
%"struct.std::_Vector_base" = type { %"struct.std::_Vector_base<std::shared_ptr<rocksdb::cassandra::ColumnBase>, std::allocator<std::shared_ptr<rocksdb::cassandra::ColumnBase>>>::_Vector_impl" }
%"struct.std::_Vector_base<std::shared_ptr<rocksdb::cassandra::ColumnBase>, std::allocator<std::shared_ptr<rocksdb::cassandra::ColumnBase>>>::_Vector_impl" = type { %"struct.std::_Vector_base<std::shared_ptr<rocksdb::cassandra::ColumnBase>, std::allocator<std::shared_ptr<rocksdb::cassandra::ColumnBase>>>::_Vector_impl_data" }
%"struct.std::_Vector_base<std::shared_ptr<rocksdb::cassandra::ColumnBase>, std::allocator<std::shared_ptr<rocksdb::cassandra::ColumnBase>>>::_Vector_impl_data" = type { ptr, ptr, ptr }

; Function Attrs: mustprogress nounwind uwtable
define linkonce_odr void @_ZNSt15__new_allocatorISt10shared_ptrIN7rocksdb9cassandra10ColumnBaseEEEC2ERKS5_(ptr noundef nonnull align 1 dereferenceable(1) %0, ptr noundef nonnull align 1 dereferenceable(1) %1) unnamed_addr #0 comdat align 2 {
  %3 = alloca ptr, align 8
  %4 = alloca ptr, align 8
  store ptr %0, ptr %3, align 8, !tbaa !160
  store ptr %1, ptr %4, align 8, !tbaa !160
  ret void
}

; Function Attrs: mustprogress nounwind uwtable
define linkonce_odr void @_ZNSt12_Vector_baseISt10shared_ptrIN7rocksdb9cassandra10ColumnBaseEESaIS4_EE17_Vector_impl_dataC2EOS7_(ptr noundef nonnull align 8 dereferenceable(24) %0, ptr noundef nonnull align 8 dereferenceable(24) %1) unnamed_addr #0 comdat align 2 {
  %3 = alloca ptr, align 8
  %4 = alloca ptr, align 8
  store ptr %0, ptr %3, align 8, !tbaa !162
  store ptr %1, ptr %4, align 8, !tbaa !162
  %5 = load ptr, ptr %3, align 8
  %6 = getelementptr inbounds nuw %"struct.std::_Vector_base<std::shared_ptr<rocksdb::cassandra::ColumnBase>, std::allocator<std::shared_ptr<rocksdb::cassandra::ColumnBase>>>::_Vector_impl_data", ptr %5, i32 0, i32 0
  %7 = load ptr, ptr %4, align 8, !tbaa !162
  %8 = getelementptr inbounds nuw %"struct.std::_Vector_base<std::shared_ptr<rocksdb::cassandra::ColumnBase>, std::allocator<std::shared_ptr<rocksdb::cassandra::ColumnBase>>>::_Vector_impl_data", ptr %7, i32 0, i32 0
  %9 = load ptr, ptr %8, align 8, !tbaa !107
  store ptr %9, ptr %6, align 8, !tbaa !107
  %10 = getelementptr inbounds nuw %"struct.std::_Vector_base<std::shared_ptr<rocksdb::cassandra::ColumnBase>, std::allocator<std::shared_ptr<rocksdb::cassandra::ColumnBase>>>::_Vector_impl_data", ptr %5, i32 0, i32 1
  %11 = load ptr, ptr %4, align 8, !tbaa !162
  %12 = getelementptr inbounds nuw %"struct.std::_Vector_base<std::shared_ptr<rocksdb::cassandra::ColumnBase>, std::allocator<std::shared_ptr<rocksdb::cassandra::ColumnBase>>>::_Vector_impl_data", ptr %11, i32 0, i32 1
  %13 = load ptr, ptr %12, align 8, !tbaa !105
  store ptr %13, ptr %10, align 8, !tbaa !105
  %14 = getelementptr inbounds nuw %"struct.std::_Vector_base<std::shared_ptr<rocksdb::cassandra::ColumnBase>, std::allocator<std::shared_ptr<rocksdb::cassandra::ColumnBase>>>::_Vector_impl_data", ptr %5, i32 0, i32 2
  %15 = load ptr, ptr %4, align 8, !tbaa !162
  %16 = getelementptr inbounds nuw %"struct.std::_Vector_base<std::shared_ptr<rocksdb::cassandra::ColumnBase>, std::allocator<std::shared_ptr<rocksdb::cassandra::ColumnBase>>>::_Vector_impl_data", ptr %15, i32 0, i32 2
  %17 = load ptr, ptr %16, align 8, !tbaa !106
  store ptr %17, ptr %14, align 8, !tbaa !106
  %18 = load ptr, ptr %4, align 8, !tbaa !162
  %19 = getelementptr inbounds nuw %"struct.std::_Vector_base<std::shared_ptr<rocksdb::cassandra::ColumnBase>, std::allocator<std::shared_ptr<rocksdb::cassandra::ColumnBase>>>::_Vector_impl_data", ptr %18, i32 0, i32 2
  store ptr null, ptr %19, align 8, !tbaa !106
  %20 = load ptr, ptr %4, align 8, !tbaa !162
  %21 = getelementptr inbounds nuw %"struct.std::_Vector_base<std::shared_ptr<rocksdb::cassandra::ColumnBase>, std::allocator<std::shared_ptr<rocksdb::cassandra::ColumnBase>>>::_Vector_impl_data", ptr %20, i32 0, i32 1
  store ptr null, ptr %21, align 8, !tbaa !105
  %22 = load ptr, ptr %4, align 8, !tbaa !162
  %23 = getelementptr inbounds nuw %"struct.std::_Vector_base<std::shared_ptr<rocksdb::cassandra::ColumnBase>, std::allocator<std::shared_ptr<rocksdb::cassandra::ColumnBase>>>::_Vector_impl_data", ptr %22, i32 0, i32 0
  store ptr null, ptr %23, align 8, !tbaa !107
  ret void
}

; Function Attrs: mustprogress nounwind uwtable
define linkonce_odr void @_ZNSaISt10shared_ptrIN7rocksdb9cassandra10ColumnBaseEEEC2ERKS4_(ptr noundef nonnull align 1 dereferenceable(1) %0, ptr noundef nonnull align 1 dereferenceable(1) %1) unnamed_addr #0 comdat align 2 {
  %3 = alloca ptr, align 8
  %4 = alloca ptr, align 8
  store ptr %0, ptr %3, align 8, !tbaa !158
  store ptr %1, ptr %4, align 8, !tbaa !158
  %5 = load ptr, ptr %3, align 8
  %6 = load ptr, ptr %4, align 8, !tbaa !158
  call void @_ZNSt15__new_allocatorISt10shared_ptrIN7rocksdb9cassandra10ColumnBaseEEEC2ERKS5_(ptr noundef nonnull align 1 dereferenceable(1) %5, ptr noundef nonnull align 1 dereferenceable(1) %6) #20
  ret void
}

; Function Attrs: mustprogress nounwind uwtable
define linkonce_odr void @_ZNSt12_Vector_baseISt10shared_ptrIN7rocksdb9cassandra10ColumnBaseEESaIS4_EE12_Vector_implC2EOS7_(ptr noundef nonnull align 8 dereferenceable(24) %0, ptr noundef nonnull align 8 dereferenceable(24) %1) unnamed_addr #0 comdat align 2 {
  %3 = alloca ptr, align 8
  %4 = alloca ptr, align 8
  store ptr %0, ptr %3, align 8, !tbaa !156
  store ptr %1, ptr %4, align 8, !tbaa !156
  %5 = load ptr, ptr %3, align 8
  %6 = load ptr, ptr %4, align 8, !tbaa !156
  call void @_ZNSaISt10shared_ptrIN7rocksdb9cassandra10ColumnBaseEEEC2ERKS4_(ptr noundef nonnull align 1 dereferenceable(1) %5, ptr noundef nonnull align 1 dereferenceable(1) %6) #20
  %7 = load ptr, ptr %4, align 8, !tbaa !156
  call void @_ZNSt12_Vector_baseISt10shared_ptrIN7rocksdb9cassandra10ColumnBaseEESaIS4_EE17_Vector_impl_dataC2EOS7_(ptr noundef nonnull align 8 dereferenceable(24) %5, ptr noundef nonnull align 8 dereferenceable(24) %7) #20
  ret void
}

; Function Attrs: mustprogress nounwind uwtable
define linkonce_odr void @_ZNSt12_Vector_baseISt10shared_ptrIN7rocksdb9cassandra10ColumnBaseEESaIS4_EEC2EOS6_(ptr noundef nonnull align 8 dereferenceable(24) %0, ptr noundef nonnull align 8 dereferenceable(24) %1) unnamed_addr #0 comdat align 2 {
  %3 = alloca ptr, align 8
  %4 = alloca ptr, align 8
  store ptr %0, ptr %3, align 8, !tbaa !154
  store ptr %1, ptr %4, align 8, !tbaa !154
  %5 = load ptr, ptr %3, align 8
  %6 = getelementptr inbounds nuw %"struct.std::_Vector_base", ptr %5, i32 0, i32 0
  %7 = load ptr, ptr %4, align 8, !tbaa !154
  %8 = getelementptr inbounds nuw %"struct.std::_Vector_base", ptr %7, i32 0, i32 0
  call void @_ZNSt12_Vector_baseISt10shared_ptrIN7rocksdb9cassandra10ColumnBaseEESaIS4_EE12_Vector_implC2EOS7_(ptr noundef nonnull align 8 dereferenceable(24) %6, ptr noundef nonnull align 8 dereferenceable(24) %8) #20
  ret void
}

; Function Attrs: mustprogress nounwind uwtable
define linkonce_odr void @_ZNSt6vectorISt10shared_ptrIN7rocksdb9cassandra10ColumnBaseEESaIS4_EEC2EOS6_(ptr noundef nonnull align 8 dereferenceable(24) %0, ptr noundef nonnull align 8 dereferenceable(24) %1) unnamed_addr #0 comdat align 2 {
  %3 = alloca ptr, align 8
  %4 = alloca ptr, align 8
  store ptr %0, ptr %3, align 8, !tbaa !91
  store ptr %1, ptr %4, align 8, !tbaa !91
  %5 = load ptr, ptr %3, align 8
  %6 = load ptr, ptr %4, align 8, !tbaa !91
  call void @_ZNSt12_Vector_baseISt10shared_ptrIN7rocksdb9cassandra10ColumnBaseEESaIS4_EEC2EOS6_(ptr noundef nonnull align 8 dereferenceable(24) %5, ptr noundef nonnull align 8 dereferenceable(24) %6) #20
  ret void
}

; Function Attrs: mustprogress nounwind uwtable
define void @_ZN7rocksdb9cassandra8RowValueC2ESt6vectorISt10shared_ptrINS0_10ColumnBaseEESaIS5_EEl(ptr noundef nonnull align 8 dereferenceable(48) %0, ptr noundef %1, i64 noundef %2) unnamed_addr #0 align 2 {
  %4 = alloca ptr, align 8
  %5 = alloca ptr, align 8
  %6 = alloca i64, align 8
  store ptr %0, ptr %4, align 8, !tbaa !81
  store ptr %1, ptr %5, align 8, !tbaa !91
  store i64 %2, ptr %6, align 8, !tbaa !19
  %7 = load ptr, ptr %4, align 8
  %8 = getelementptr inbounds nuw %"class.rocksdb::cassandra::RowValue", ptr %7, i32 0, i32 0
  store i32 2147483647, ptr %8, align 8, !tbaa !83
  %9 = getelementptr inbounds nuw %"class.rocksdb::cassandra::RowValue", ptr %7, i32 0, i32 1
  store i64 -9223372036854775808, ptr %9, align 8, !tbaa !89
  %10 = getelementptr inbounds nuw %"class.rocksdb::cassandra::RowValue", ptr %7, i32 0, i32 2
  call void @_ZNSt6vectorISt10shared_ptrIN7rocksdb9cassandra10ColumnBaseEESaIS4_EEC2EOS6_(ptr noundef nonnull align 8 dereferenceable(24) %10, ptr noundef nonnull align 8 dereferenceable(24) %1) #20
  %11 = getelementptr inbounds nuw %"class.rocksdb::cassandra::RowValue", ptr %7, i32 0, i32 3
  %12 = load i64, ptr %6, align 8, !tbaa !19
  store i64 %12, ptr %11, align 8, !tbaa !90
  ret void
}