; Function Attrs: mustprogress nofree norecurse nosync nounwind willreturn memory(argmem: readwrite) uwtable
define void @_ZN7rocksdb9cassandra8RowValueC2ESt6vectorISt10shared_ptrINS0_10ColumnBaseEESaIS5_EEl(ptr noundef nonnull writeonly align 8 captures(none) dereferenceable(48) initializes((0, 4), (8, 48)) %0, ptr noundef captures(none) %1, i64 noundef %2) unnamed_addr #8 align 2 {
  store i32 2147483647, ptr %0, align 8, !tbaa !87
  %4 = getelementptr inbounds nuw i8, ptr %0, i64 8
  store i64 -9223372036854775808, ptr %4, align 8, !tbaa !94
  %5 = getelementptr inbounds nuw i8, ptr %0, i64 16
  %6 = load ptr, ptr %1, align 8, !tbaa !95
  store ptr %6, ptr %5, align 8, !tbaa !95
  %7 = getelementptr inbounds nuw i8, ptr %0, i64 24
  %8 = getelementptr inbounds nuw i8, ptr %1, i64 8
  %9 = load ptr, ptr %8, align 8, !tbaa !96
  store ptr %9, ptr %7, align 8, !tbaa !96
  %10 = getelementptr inbounds nuw i8, ptr %0, i64 32
  %11 = getelementptr inbounds nuw i8, ptr %1, i64 16
  %12 = load ptr, ptr %11, align 8, !tbaa !97
  store ptr %12, ptr %10, align 8, !tbaa !97
  tail call void @llvm.memset.p0.i64(ptr noundef nonnull align 8 dereferenceable(24) %1, i8 0, i64 24, i1 false)
  %13 = getelementptr inbounds nuw i8, ptr %0, i64 40
  store i64 %2, ptr %13, align 8, !tbaa !98
  ret void
}